; Function Attrs: nounwind uwtable
define dso_local noundef ptr @list_delete_first_n(ptr noundef %0, i32 noundef %1) local_unnamed_addr #0 {
  %3 = icmp slt i32 %1, 1
  br i1 %3, label %list_free.exit, label %4

4:                                                ; preds = %2
  %.not.i = icmp eq ptr %0, null
  br i1 %.not.i, label %list_free.exit, label %list_length.exit

list_length.exit:                                 ; preds = %4
  %5 = getelementptr inbounds nuw i8, ptr %0, i64 4
  %6 = load i32, ptr %5, align 4
  %.not = icmp slt i32 %1, %6
  %7 = getelementptr inbounds nuw i8, ptr %0, i64 16
  %8 = load ptr, ptr %7, align 8
  br i1 %.not, label %13, label %9

9:                                                ; preds = %list_length.exit
  %10 = getelementptr inbounds nuw i8, ptr %0, i64 24
  %.not.i.i = icmp eq ptr %8, %10
  br i1 %.not.i.i, label %12, label %11

11:                                               ; preds = %9
  tail call void @pfree(ptr noundef %8) #9
  br label %12

12:                                               ; preds = %11, %9
  tail call void @pfree(ptr noundef nonnull %0) #9
  br label %list_free.exit

13:                                               ; preds = %list_length.exit
  %14 = zext nneg i32 %1 to i64
  %15 = getelementptr inbounds nuw %union.ListCell, ptr %8, i64 %14
  %16 = sub nsw i32 %6, %1
  %17 = sext i32 %16 to i64
  %18 = shl nsw i64 %17, 3
  tail call void @llvm.memmove.p0.p0.i64(ptr align 8 %8, ptr nonnull align 8 %15, i64 %18, i1 false)
  %19 = load i32, ptr %5, align 4
  %20 = sub i32 %19, %1
  store i32 %20, ptr %5, align 4
  br label %list_free.exit

list_free.exit:                                   ; preds = %4, %12, %2, %13
  %.0 = phi ptr [ %0, %13 ], [ %0, %2 ], [ null, %12 ], [ null, %4 ]
  ret ptr %.0
}